target datalayout = "e-m:e-p270:32:32-p271:32:32-p272:64:64-i64:64-i128:128-f80:128-n8:16:32:64-S128"
target triple = "x86_64-pc-linux-gnu"

@pmix_stepd_rank = internal global i32 -1, align 4
@pmix_stepd_width = internal global i32 16, align 4
@pmix_stepd_children = internal global i32 0, align 4
@pmix_app_children = internal global i32 0, align 4

; Function Attrs: nounwind uwtable
define dso_local i32 @pmix_ring_id_by_rank(i32 noundef %0) #0 {
  %2 = alloca i32, align 4
  %3 = alloca i32, align 4
  %4 = alloca i32, align 4
  store i32 %0, ptr %2, align 4
  call void @llvm.lifetime.start.p0(i64 4, ptr %3) #6
  %5 = load i32, ptr @pmix_stepd_rank, align 4
  %6 = load i32, ptr @pmix_stepd_width, align 4
  %7 = mul nsw i32 %5, %6
  %8 = add nsw i32 %7, 1
  store i32 %8, ptr %3, align 4
  call void @llvm.lifetime.start.p0(i64 4, ptr %4) #6
  %9 = load i32, ptr %2, align 4
  %10 = load i32, ptr %3, align 4
  %11 = sub nsw i32 %9, %10
  store i32 %11, ptr %4, align 4
  %12 = load i32, ptr %2, align 4
  %13 = load i32, ptr %3, align 4
  %14 = icmp sge i32 %12, %13
  br i1 %14, label %15, label %23

15:                                               ; preds = %1
  %16 = load i32, ptr %4, align 4
  %17 = load i32, ptr @pmix_stepd_children, align 4
  %18 = icmp slt i32 %16, %17
  br i1 %18, label %19, label %23

19:                                               ; preds = %15
  %20 = load i32, ptr @pmix_app_children, align 4
  %21 = load i32, ptr %4, align 4
  %22 = add nsw i32 %21, %20
  store i32 %22, ptr %4, align 4
  br label %24

23:                                               ; preds = %15, %1
  store i32 -1, ptr %4, align 4
  br label %24

24:                                               ; preds = %23, %19
  %25 = load i32, ptr %4, align 4
  call void @llvm.lifetime.end.p0(i64 4, ptr %4) #6
  call void @llvm.lifetime.end.p0(i64 4, ptr %3) #6
  ret i32 %25
}