; Function Attrs: mustprogress nofree norecurse nosync nounwind willreturn memory(read, argmem: none, inaccessiblemem: none) uwtable
define dso_local i32 @pmix_ring_id_by_rank(i32 noundef %0) local_unnamed_addr #0 {
  %2 = load i32, ptr @pmix_stepd_rank, align 4
  %3 = load i32, ptr @pmix_stepd_width, align 4
  %4 = mul nsw i32 %3, %2
  %.neg = xor i32 %4, -1
  %5 = add i32 %0, %.neg
  %.not.not = icmp sgt i32 %0, %4
  %6 = load i32, ptr @pmix_stepd_children, align 4
  %7 = icmp slt i32 %5, %6
  %or.cond = select i1 %.not.not, i1 %7, i1 false
  %8 = load i32, ptr @pmix_app_children, align 4
  %9 = add nsw i32 %5, %8
  %.0 = select i1 %or.cond, i32 %9, i32 -1
  ret i32 %.0
}